; Function Attrs: mustprogress nofree norecurse nosync nounwind willreturn memory(read, inaccessiblemem: none) uwtable
define zeroext range(i8 0, 2) i8 @l_Lean_Widget_ExprDiff_isEmpty(ptr noundef readonly captures(none) %0) local_unnamed_addr #5 {
  %2 = getelementptr inbounds nuw i8, ptr %0, i64 8
  %3 = getelementptr inbounds nuw i8, ptr %0, i64 16
  %4 = load ptr, ptr %3, align 8, !tbaa !4
  %5 = ptrtoint ptr %4 to i64
  %6 = and i64 %5, 1
  %.not.i = icmp eq i64 %6, 0
  br i1 %.not.i, label %10, label %7

7:                                                ; preds = %1
  %8 = lshr i64 %5, 1
  %9 = trunc i64 %8 to i32
  br label %lean_obj_tag.exit

10:                                               ; preds = %1
  %11 = getelementptr i8, ptr %4, i64 4
  %.val.i = load i32, ptr %11, align 4
  %12 = lshr i32 %.val.i, 24
  br label %lean_obj_tag.exit

lean_obj_tag.exit:                                ; preds = %7, %10
  %.0.i = phi i32 [ %9, %7 ], [ %12, %10 ]
  %13 = icmp eq i32 %.0.i, 0
  br i1 %13, label %14, label %25

14:                                               ; preds = %lean_obj_tag.exit
  %15 = load ptr, ptr %2, align 8, !tbaa !4
  %16 = ptrtoint ptr %15 to i64
  %17 = and i64 %16, 1
  %.not.i7 = icmp eq i64 %17, 0
  br i1 %.not.i7, label %21, label %18

18:                                               ; preds = %14
  %19 = lshr i64 %16, 1
  %20 = trunc i64 %19 to i32
  br label %lean_obj_tag.exit10

21:                                               ; preds = %14
  %22 = getelementptr i8, ptr %15, i64 4
  %.val.i9 = load i32, ptr %22, align 4
  %23 = lshr i32 %.val.i9, 24
  br label %lean_obj_tag.exit10

lean_obj_tag.exit10:                              ; preds = %18, %21
  %.0.i8 = phi i32 [ %20, %18 ], [ %23, %21 ]
  %24 = icmp eq i32 %.0.i8, 0
  %. = zext i1 %24 to i8
  br label %25

25:                                               ; preds = %lean_obj_tag.exit, %lean_obj_tag.exit10
  %.1 = phi i8 [ %., %lean_obj_tag.exit10 ], [ 0, %lean_obj_tag.exit ]
  ret i8 %.1
}